target datalayout = "e-m:e-p270:32:32-p271:32:32-p272:64:64-i64:64-i128:128-f80:128-n8:16:32:64-S128"
target triple = "x86_64-pc-linux-gnu"

%struct.cl_fmap = type { ptr, ptr, ptr, i64, i64, i64, i64, i8, i8, i8, i64, i64, i64, i64, ptr, ptr, ptr, ptr, ptr, ptr, ptr, i8, [16 x i8], i8, [20 x i8], i8, [32 x i8], ptr, ptr }

; Function Attrs: nounwind uwtable
define internal ptr @mem_need(ptr noundef %0, i64 noundef %1, i64 noundef %2, i32 noundef %3) #0 {
  %5 = alloca ptr, align 8
  %6 = alloca ptr, align 8
  %7 = alloca i64, align 8
  %8 = alloca i64, align 8
  %9 = alloca i32, align 4
  store ptr %0, ptr %6, align 8
  store i64 %1, ptr %7, align 8
  store i64 %2, ptr %8, align 8
  store i32 %3, ptr %9, align 4
  %10 = load i64, ptr %8, align 8
  %11 = icmp ne i64 %10, 0
  br i1 %11, label %13, label %12

12:                                               ; preds = %4
  store ptr null, ptr %5, align 8
  br label %75

13:                                               ; preds = %4
  %14 = load ptr, ptr %6, align 8
  %15 = getelementptr inbounds %struct.cl_fmap, ptr %14, i32 0, i32 11
  %16 = load i64, ptr %15, align 8
  %17 = load i64, ptr %7, align 8
  %18 = add i64 %17, %16
  store i64 %18, ptr %7, align 8
  %19 = load ptr, ptr %6, align 8
  %20 = getelementptr inbounds %struct.cl_fmap, ptr %19, i32 0, i32 13
  %21 = load i64, ptr %20, align 8
  %22 = icmp ugt i64 %21, 0
  br i1 %22, label %23, label %68

23:                                               ; preds = %13
  %24 = load i64, ptr %8, align 8
  %25 = icmp ugt i64 %24, 0
  br i1 %25, label %26, label %68

26:                                               ; preds = %23
  %27 = load i64, ptr %8, align 8
  %28 = load ptr, ptr %6, align 8
  %29 = getelementptr inbounds %struct.cl_fmap, ptr %28, i32 0, i32 13
  %30 = load i64, ptr %29, align 8
  %31 = icmp ule i64 %27, %30
  br i1 %31, label %32, label %68

32:                                               ; preds = %26
  %33 = load i64, ptr %7, align 8
  %34 = load ptr, ptr %6, align 8
  %35 = getelementptr inbounds %struct.cl_fmap, ptr %34, i32 0, i32 11
  %36 = load i64, ptr %35, align 8
  %37 = icmp uge i64 %33, %36
  br i1 %37, label %38, label %68

38:                                               ; preds = %32
  %39 = load i64, ptr %7, align 8
  %40 = load i64, ptr %8, align 8
  %41 = add i64 %39, %40
  %42 = load ptr, ptr %6, align 8
  %43 = getelementptr inbounds %struct.cl_fmap, ptr %42, i32 0, i32 11
  %44 = load i64, ptr %43, align 8
  %45 = load ptr, ptr %6, align 8
  %46 = getelementptr inbounds %struct.cl_fmap, ptr %45, i32 0, i32 13
  %47 = load i64, ptr %46, align 8
  %48 = add i64 %44, %47
  %49 = icmp ule i64 %41, %48
  br i1 %49, label %50, label %68

50:                                               ; preds = %38
  %51 = load i64, ptr %7, align 8
  %52 = load i64, ptr %8, align 8
  %53 = add i64 %51, %52
  %54 = load ptr, ptr %6, align 8
  %55 = getelementptr inbounds %struct.cl_fmap, ptr %54, i32 0, i32 11
  %56 = load i64, ptr %55, align 8
  %57 = icmp ugt i64 %53, %56
  br i1 %57, label %58, label %68

58:                                               ; preds = %50
  %59 = load i64, ptr %7, align 8
  %60 = load ptr, ptr %6, align 8
  %61 = getelementptr inbounds %struct.cl_fmap, ptr %60, i32 0, i32 11
  %62 = load i64, ptr %61, align 8
  %63 = load ptr, ptr %6, align 8
  %64 = getelementptr inbounds %struct.cl_fmap, ptr %63, i32 0, i32 13
  %65 = load i64, ptr %64, align 8
  %66 = add i64 %62, %65
  %67 = icmp ult i64 %59, %66
  br i1 %67, label %69, label %68

68:                                               ; preds = %58, %50, %38, %32, %26, %23, %13
  store ptr null, ptr %5, align 8
  br label %75

69:                                               ; preds = %58
  %70 = load ptr, ptr %6, align 8
  %71 = getelementptr inbounds %struct.cl_fmap, ptr %70, i32 0, i32 2
  %72 = load ptr, ptr %71, align 8
  %73 = load i64, ptr %7, align 8
  %74 = getelementptr inbounds i8, ptr %72, i64 %73
  store ptr %74, ptr %5, align 8
  br label %75

75:                                               ; preds = %69, %68, %12
  %76 = load ptr, ptr %5, align 8
  ret ptr %76
}