; Function Attrs: mustprogress nofree norecurse nosync nounwind willreturn memory(argmem: read) uwtable
define internal ptr @mem_need(ptr nocapture noundef readonly %0, i64 noundef %1, i64 noundef %2, i32 %3) #10 {
  %.not = icmp eq i64 %2, 0
  br i1 %.not, label %20, label %5

5:                                                ; preds = %4
  %6 = getelementptr inbounds i8, ptr %0, i64 72
  %7 = load i64, ptr %6, align 8
  %8 = add i64 %7, %1
  %9 = getelementptr inbounds i8, ptr %0, i64 88
  %10 = load i64, ptr %9, align 8
  %.not29 = icmp ult i64 %10, %2
  %.not30 = icmp ult i64 %8, %7
  %or.cond32 = select i1 %.not29, i1 true, i1 %.not30
  br i1 %or.cond32, label %20, label %11

11:                                               ; preds = %5
  %12 = add i64 %8, %2
  %13 = add i64 %10, %7
  %.not31 = icmp ule i64 %12, %13
  %14 = icmp ugt i64 %12, %7
  %or.cond33 = and i1 %.not31, %14
  %15 = icmp ult i64 %8, %13
  %or.cond34 = and i1 %15, %or.cond33
  br i1 %or.cond34, label %16, label %20

16:                                               ; preds = %11
  %17 = getelementptr inbounds i8, ptr %0, i64 16
  %18 = load ptr, ptr %17, align 8
  %19 = getelementptr inbounds i8, ptr %18, i64 %8
  br label %20

20:                                               ; preds = %5, %11, %4, %16
  %.0 = phi ptr [ %19, %16 ], [ null, %4 ], [ null, %11 ], [ null, %5 ]
  ret ptr %.0
}